target datalayout = "e-m:e-p270:32:32-p271:32:32-p272:64:64-i64:64-i128:128-f80:128-n8:16:32:64-S128"
target triple = "x86_64-pc-linux-gnu"

@.str.65 = private unnamed_addr constant [8 x i8] c"fhandle\00", align 1
@hf_nfs_status = external global i32, align 4
@.str.66 = private unnamed_addr constant [5 x i8] c"attr\00", align 1

; Function Attrs: null_pointer_is_valid sspstrong uwtable
define internal i32 @dissect_nfsacl3_getxattrdir_reply(ptr noundef %0, ptr noundef %1, ptr noundef %2, ptr noundef %3) #0 {
  %5 = alloca ptr, align 8
  %6 = alloca ptr, align 8
  %7 = alloca ptr, align 8
  %8 = alloca ptr, align 8
  %9 = alloca i32, align 4
  %10 = alloca i32, align 4
  store ptr %0, ptr %5, align 8
  store ptr %1, ptr %6, align 8
  store ptr %2, ptr %7, align 8
  store ptr %3, ptr %8, align 8
  call void @llvm.lifetime.start.p0(i64 4, ptr %9) #4
  call void @llvm.lifetime.start.p0(i64 4, ptr %10) #4
  store i32 0, ptr %10, align 4
  %11 = load ptr, ptr %7, align 8
  %12 = load i32, ptr @hf_nfs_status, align 4
  %13 = load ptr, ptr %5, align 8
  %14 = load i32, ptr %10, align 4
  %15 = call ptr @proto_tree_add_item_ret_uint(ptr noundef %11, i32 noundef %12, ptr noundef %13, i32 noundef %14, i32 noundef 4, i32 noundef 0, ptr noundef %9)
  %16 = load i32, ptr %10, align 4
  %17 = add i32 %16, 4
  store i32 %17, ptr %10, align 4
  %18 = load i32, ptr %9, align 4
  %19 = icmp eq i32 %18, 0
  br i1 %19, label %20, label %32

20:                                               ; preds = %4
  %21 = load ptr, ptr %5, align 8
  %22 = load i32, ptr %10, align 4
  %23 = load ptr, ptr %6, align 8
  %24 = load ptr, ptr %7, align 8
  %25 = load ptr, ptr %8, align 8
  %26 = call i32 @dissect_nfs3_fh(ptr noundef %21, i32 noundef %22, ptr noundef %23, ptr noundef %24, ptr noundef @.str.65, ptr noundef null, ptr noundef %25)
  store i32 %26, ptr %10, align 4
  %27 = load ptr, ptr %5, align 8
  %28 = load i32, ptr %10, align 4
  %29 = load ptr, ptr %6, align 8
  %30 = load ptr, ptr %7, align 8
  %31 = call i32 @dissect_nfs3_post_op_attr(ptr noundef %27, i32 noundef %28, ptr noundef %29, ptr noundef %30, ptr noundef @.str.66)
  store i32 %31, ptr %10, align 4
  br label %32

32:                                               ; preds = %20, %4
  %33 = load i32, ptr %10, align 4
  call void @llvm.lifetime.end.p0(i64 4, ptr %10) #4
  call void @llvm.lifetime.end.p0(i64 4, ptr %9) #4
  ret i32 %33
}