; Function Attrs: null_pointer_is_valid sspstrong uwtable
define internal i32 @dissect_nfsacl3_getxattrdir_reply(ptr noundef %0, ptr noundef %1, ptr noundef %2, ptr noundef %3) #0 {
  %5 = alloca i32, align 4
  call void @llvm.lifetime.start.p0(i64 4, ptr nonnull %5) #4
  %6 = load i32, ptr @hf_nfs_status, align 4
  %7 = call ptr @proto_tree_add_item_ret_uint(ptr noundef %2, i32 noundef %6, ptr noundef %0, i32 noundef 0, i32 noundef 4, i32 noundef 0, ptr noundef nonnull %5)
  %8 = load i32, ptr %5, align 4
  %9 = icmp eq i32 %8, 0
  br i1 %9, label %10, label %13

10:                                               ; preds = %4
  %11 = call i32 @dissect_nfs3_fh(ptr noundef %0, i32 noundef 4, ptr noundef %1, ptr noundef %2, ptr noundef nonnull @.str.65, ptr noundef null, ptr noundef %3)
  %12 = call i32 @dissect_nfs3_post_op_attr(ptr noundef %0, i32 noundef %11, ptr noundef %1, ptr noundef %2, ptr noundef nonnull @.str.66)
  br label %13

13:                                               ; preds = %10, %4
  %.0 = phi i32 [ %12, %10 ], [ 4, %4 ]
  call void @llvm.lifetime.end.p0(i64 4, ptr nonnull %5) #4
  ret i32 %.0
}